; Function Attrs: nounwind uwtable
define hidden noundef i32 @mbedtls_md5_finish(ptr noundef %0, ptr noundef writeonly captures(none) initializes((0, 16)) %1) local_unnamed_addr #2 {
  %3 = load i32, ptr %0, align 4, !tbaa !7
  %4 = and i32 %3, 63
  %5 = getelementptr inbounds nuw i8, ptr %0, i64 24
  %6 = zext nneg i32 %4 to i64
  %7 = getelementptr inbounds nuw [64 x i8], ptr %5, i64 0, i64 %6
  store i8 -128, ptr %7, align 1, !tbaa !4
  %8 = icmp samesign ult i32 %4, 56
  %9 = zext nneg i32 %4 to i64
  %10 = getelementptr inbounds nuw i8, ptr %5, i64 %9
  %11 = getelementptr inbounds nuw i8, ptr %10, i64 1
  br i1 %8, label %12, label %15

12:                                               ; preds = %2
  %13 = sub nuw nsw i32 55, %4
  %14 = zext nneg i32 %13 to i64
  tail call void @llvm.memset.p0.i64(ptr nonnull align 1 %11, i8 0, i64 %14, i1 false)
  br label %mbedtls_md5_free.exit

15:                                               ; preds = %2
  %16 = xor i32 %4, 63
  %17 = zext nneg i32 %16 to i64
  tail call void @llvm.memset.p0.i64(ptr nonnull align 1 %11, i8 0, i64 %17, i1 false)
  %18 = tail call i32 @mbedtls_internal_md5_process(ptr noundef nonnull %0, ptr noundef nonnull %5)
  tail call void @llvm.memset.p0.i64(ptr noundef nonnull align 4 dereferenceable(56) %5, i8 0, i64 56, i1 false)
  %.pre = load i32, ptr %0, align 4, !tbaa !7
  br label %mbedtls_md5_free.exit

mbedtls_md5_free.exit:                            ; preds = %15, %12
  %19 = phi i32 [ %.pre, %15 ], [ %3, %12 ]
  %20 = getelementptr inbounds nuw i8, ptr %0, i64 4
  %21 = load i32, ptr %20, align 4, !tbaa !7
  %22 = tail call i32 @llvm.fshl.i32(i32 %21, i32 %19, i32 3)
  %23 = shl i32 %19, 3
  %24 = getelementptr inbounds nuw i8, ptr %0, i64 80
  store i32 %23, ptr %24, align 1
  %25 = getelementptr inbounds nuw i8, ptr %0, i64 84
  store i32 %22, ptr %25, align 1
  %26 = tail call i32 @mbedtls_internal_md5_process(ptr noundef nonnull %0, ptr noundef nonnull %5)
  %27 = getelementptr inbounds nuw i8, ptr %0, i64 8
  %28 = load i32, ptr %27, align 4, !tbaa !7
  store i32 %28, ptr %1, align 1
  %29 = getelementptr inbounds nuw i8, ptr %1, i64 4
  %30 = getelementptr inbounds nuw i8, ptr %0, i64 12
  %31 = load i32, ptr %30, align 4, !tbaa !7
  store i32 %31, ptr %29, align 1
  %32 = getelementptr inbounds nuw i8, ptr %1, i64 8
  %33 = getelementptr inbounds nuw i8, ptr %0, i64 16
  %34 = load i32, ptr %33, align 4, !tbaa !7
  store i32 %34, ptr %32, align 1
  %35 = getelementptr inbounds nuw i8, ptr %1, i64 12
  %36 = getelementptr inbounds nuw i8, ptr %0, i64 20
  %37 = load i32, ptr %36, align 4, !tbaa !7
  store i32 %37, ptr %35, align 1
  tail call void @mbedtls_platform_zeroize(ptr noundef nonnull %0, i64 noundef 88) #11
  ret i32 0
}